; Function Attrs: mustprogress uwtable
define noundef zeroext i1 @_ZN5draco10DataBuffer6UpdateEPKvl(ptr noundef nonnull align 8 dereferenceable(40) %0, ptr noundef readonly captures(address_is_null) %1, i64 noundef %2) local_unnamed_addr #1 align 2 {
  %4 = icmp eq ptr %1, null
  %5 = icmp slt i64 %2, 0
  br i1 %4, label %6, label %8

6:                                                ; preds = %3
  br i1 %5, label %_ZN5draco10DataBuffer6UpdateEPKvll.exit, label %7

7:                                                ; preds = %6
  tail call void @_ZNSt6vectorIhSaIhEE6resizeEm(ptr noundef nonnull align 8 dereferenceable(40) %0, i64 noundef %2)
  br label %_ZSt4copyIPKhPhET0_T_S4_S3_.exit.i

8:                                                ; preds = %3
  br i1 %5, label %_ZN5draco10DataBuffer6UpdateEPKvll.exit, label %9

9:                                                ; preds = %8
  %10 = getelementptr inbounds nuw i8, ptr %0, i64 8
  %11 = load ptr, ptr %10, align 8, !tbaa !3
  %12 = load ptr, ptr %0, align 8, !tbaa !9
  %13 = ptrtoint ptr %11 to i64
  %14 = ptrtoint ptr %12 to i64
  %15 = sub i64 %13, %14
  %16 = icmp sgt i64 %2, %15
  br i1 %16, label %17, label %18

17:                                               ; preds = %9
  tail call void @_ZNSt6vectorIhSaIhEE6resizeEm(ptr noundef nonnull align 8 dereferenceable(40) %0, i64 noundef %2)
  br label %18

18:                                               ; preds = %17, %9
  %.not.i.i.i.i.i.i = icmp samesign eq i64 %2, 0
  br i1 %.not.i.i.i.i.i.i, label %_ZSt4copyIPKhPhET0_T_S4_S3_.exit.i, label %19

19:                                               ; preds = %18
  %20 = load ptr, ptr %0, align 8, !tbaa !9
  tail call void @llvm.memmove.p0.p0.i64(ptr align 1 %20, ptr nonnull readonly align 1 %1, i64 %2, i1 false)
  br label %_ZSt4copyIPKhPhET0_T_S4_S3_.exit.i

_ZSt4copyIPKhPhET0_T_S4_S3_.exit.i:               ; preds = %19, %18, %7
  %21 = getelementptr inbounds nuw i8, ptr %0, i64 32
  %22 = load i64, ptr %21, align 8, !tbaa !10
  %23 = add nsw i64 %22, 1
  store i64 %23, ptr %21, align 8, !tbaa !10
  br label %_ZN5draco10DataBuffer6UpdateEPKvll.exit

_ZN5draco10DataBuffer6UpdateEPKvll.exit:          ; preds = %6, %8, %_ZSt4copyIPKhPhET0_T_S4_S3_.exit.i
  %.0.i = phi i1 [ true, %_ZSt4copyIPKhPhET0_T_S4_S3_.exit.i ], [ false, %6 ], [ false, %8 ]
  ret i1 %.0.i
}